target datalayout = "e-m:e-p270:32:32-p271:32:32-p272:64:64-i64:64-i128:128-f80:128-n8:16:32:64-S128"
target triple = "x86_64-pc-linux-gnu"

%"struct.std::_Rb_tree_header" = type { %"struct.std::_Rb_tree_node_base", i64 }
%"struct.std::_Rb_tree_node_base" = type { i32, ptr, ptr, ptr }
%"struct.pkpy::CodeEmitContext" = type { ptr, %"class.std::shared_ptr", %"class.std::shared_ptr.0", %"class.pkpy::stack_no_copy", i32, %"class.std::set", i32, i8, i32, %"class.std::map.13", %"class.std::map.21" }
%"class.std::shared_ptr" = type { %"class.std::__shared_ptr" }
%"class.std::__shared_ptr" = type { ptr, %"class.std::__shared_count" }
%"class.std::__shared_count" = type { ptr }
%"class.std::shared_ptr.0" = type { %"class.std::__shared_ptr.1" }
%"class.std::__shared_ptr.1" = type { ptr, %"class.std::__shared_count" }
%"class.pkpy::stack_no_copy" = type { %"class.pkpy::stack" }
%"class.pkpy::stack" = type { %"class.std::vector" }
%"class.std::vector" = type { %"struct.std::_Vector_base" }
%"struct.std::_Vector_base" = type { %"struct.std::_Vector_base<pkpy::unique_ptr_128<pkpy::Expr>, std::allocator<pkpy::unique_ptr_128<pkpy::Expr>>>::_Vector_impl" }
%"struct.std::_Vector_base<pkpy::unique_ptr_128<pkpy::Expr>, std::allocator<pkpy::unique_ptr_128<pkpy::Expr>>>::_Vector_impl" = type { %"struct.std::_Vector_base<pkpy::unique_ptr_128<pkpy::Expr>, std::allocator<pkpy::unique_ptr_128<pkpy::Expr>>>::_Vector_impl_data" }
%"struct.std::_Vector_base<pkpy::unique_ptr_128<pkpy::Expr>, std::allocator<pkpy::unique_ptr_128<pkpy::Expr>>>::_Vector_impl_data" = type { ptr, ptr, ptr }
%"class.std::set" = type { %"class.std::_Rb_tree.6" }
%"class.std::_Rb_tree.6" = type { %"struct.std::_Rb_tree<pkpy::Str, pkpy::Str, std::_Identity<pkpy::Str>, std::less<pkpy::Str>>::_Rb_tree_impl" }
%"struct.std::_Rb_tree<pkpy::Str, pkpy::Str, std::_Identity<pkpy::Str>, std::less<pkpy::Str>>::_Rb_tree_impl" = type { %"struct.std::_Rb_tree_key_compare.10", %"struct.std::_Rb_tree_header" }
%"struct.std::_Rb_tree_key_compare.10" = type { %"struct.std::less.11" }
%"struct.std::less.11" = type { i8 }
%"class.std::map.13" = type { %"class.std::_Rb_tree.14" }
%"class.std::_Rb_tree.14" = type { %"struct.std::_Rb_tree<void *, std::pair<void *const, int>, std::_Select1st<std::pair<void *const, int>>, std::less<void *>>::_Rb_tree_impl" }
%"struct.std::_Rb_tree<void *, std::pair<void *const, int>, std::_Select1st<std::pair<void *const, int>>, std::less<void *>>::_Rb_tree_impl" = type { %"struct.std::_Rb_tree_key_compare.18", %"struct.std::_Rb_tree_header" }
%"struct.std::_Rb_tree_key_compare.18" = type { %"struct.std::less.19" }
%"struct.std::less.19" = type { i8 }
%"class.std::map.21" = type { %"class.std::_Rb_tree.22" }
%"class.std::_Rb_tree.22" = type { %"struct.std::_Rb_tree<std::__cxx11::basic_string<char>, std::pair<const std::__cxx11::basic_string<char>, int>, std::_Select1st<std::pair<const std::__cxx11::basic_string<char>, int>>, std::less<void>>::_Rb_tree_impl" }
%"struct.std::_Rb_tree<std::__cxx11::basic_string<char>, std::pair<const std::__cxx11::basic_string<char>, int>, std::_Select1st<std::pair<const std::__cxx11::basic_string<char>, int>>, std::less<void>>::_Rb_tree_impl" = type { %"struct.std::_Rb_tree_key_compare.26", %"struct.std::_Rb_tree_header" }
%"struct.std::_Rb_tree_key_compare.26" = type { %"struct.std::less.27" }
%"struct.std::less.27" = type { i8 }
%"struct.pkpy::CodeObject" = type { %"class.std::shared_ptr.28", %"struct.pkpy::Str", %"class.std::vector.31", %"class.std::vector.36", %"class.std::vector.41", %"class.pkpy::small_vector_2", %"class.pkpy::small_vector_2.46", %"struct.pkpy::NameDictImpl", %"class.std::vector.48", %"struct.pkpy::NameDictImpl", %"class.std::vector.53", i32, i32 }
%"class.std::shared_ptr.28" = type { %"class.std::__shared_ptr.29" }
%"class.std::__shared_ptr.29" = type { ptr, %"class.std::__shared_count" }
%"struct.pkpy::Str" = type { i32, i8, ptr, [16 x i8] }
%"class.std::vector.31" = type { %"struct.std::_Vector_base.32" }
%"struct.std::_Vector_base.32" = type { %"struct.std::_Vector_base<pkpy::Bytecode, std::allocator<pkpy::Bytecode>>::_Vector_impl" }
%"struct.std::_Vector_base<pkpy::Bytecode, std::allocator<pkpy::Bytecode>>::_Vector_impl" = type { %"struct.std::_Vector_base<pkpy::Bytecode, std::allocator<pkpy::Bytecode>>::_Vector_impl_data" }
%"struct.std::_Vector_base<pkpy::Bytecode, std::allocator<pkpy::Bytecode>>::_Vector_impl_data" = type { ptr, ptr, ptr }
%"class.std::vector.36" = type { %"struct.std::_Vector_base.37" }
%"struct.std::_Vector_base.37" = type { %"struct.std::_Vector_base<int, std::allocator<int>>::_Vector_impl" }
%"struct.std::_Vector_base<int, std::allocator<int>>::_Vector_impl" = type { %"struct.std::_Vector_base<int, std::allocator<int>>::_Vector_impl_data" }
%"struct.std::_Vector_base<int, std::allocator<int>>::_Vector_impl_data" = type { ptr, ptr, ptr }
%"class.std::vector.41" = type { %"struct.std::_Vector_base.42" }
%"struct.std::_Vector_base.42" = type { %"struct.std::_Vector_base<pkpy::CodeObject::LineInfo, std::allocator<pkpy::CodeObject::LineInfo>>::_Vector_impl" }
%"struct.std::_Vector_base<pkpy::CodeObject::LineInfo, std::allocator<pkpy::CodeObject::LineInfo>>::_Vector_impl" = type { %"struct.std::_Vector_base<pkpy::CodeObject::LineInfo, std::allocator<pkpy::CodeObject::LineInfo>>::_Vector_impl_data" }
%"struct.std::_Vector_base<pkpy::CodeObject::LineInfo, std::allocator<pkpy::CodeObject::LineInfo>>::_Vector_impl_data" = type { ptr, ptr, ptr }
%"class.pkpy::small_vector_2" = type { %"class.pkpy::small_vector" }
%"class.pkpy::small_vector" = type { [64 x i8], ptr, ptr, ptr }
%"class.pkpy::small_vector_2.46" = type { %"class.pkpy::small_vector.47" }
%"class.pkpy::small_vector.47" = type { [16 x i8], ptr, ptr, ptr }
%"class.std::vector.48" = type { %"struct.std::_Vector_base.49" }
%"struct.std::_Vector_base.49" = type { %"struct.std::_Vector_base<pkpy::CodeBlock, std::allocator<pkpy::CodeBlock>>::_Vector_impl" }
%"struct.std::_Vector_base<pkpy::CodeBlock, std::allocator<pkpy::CodeBlock>>::_Vector_impl" = type { %"struct.std::_Vector_base<pkpy::CodeBlock, std::allocator<pkpy::CodeBlock>>::_Vector_impl_data" }
%"struct.std::_Vector_base<pkpy::CodeBlock, std::allocator<pkpy::CodeBlock>>::_Vector_impl_data" = type { ptr, ptr, ptr }
%"struct.pkpy::NameDictImpl" = type { %union.anon }
%union.anon = type <{ %"struct.pkpy::LargeNameDict", [32 x i8] }>
%"struct.pkpy::LargeNameDict" = type { i8, float, i16, i16, i16, i16, ptr }
%"class.std::vector.53" = type { %"struct.std::_Vector_base.54" }
%"struct.std::_Vector_base.54" = type { %"struct.std::_Vector_base<std::shared_ptr<pkpy::FuncDecl>, std::allocator<std::shared_ptr<pkpy::FuncDecl>>>::_Vector_impl" }
%"struct.std::_Vector_base<std::shared_ptr<pkpy::FuncDecl>, std::allocator<std::shared_ptr<pkpy::FuncDecl>>>::_Vector_impl" = type { %"struct.std::_Vector_base<std::shared_ptr<pkpy::FuncDecl>, std::allocator<std::shared_ptr<pkpy::FuncDecl>>>::_Vector_impl_data" }
%"struct.std::_Vector_base<std::shared_ptr<pkpy::FuncDecl>, std::allocator<std::shared_ptr<pkpy::FuncDecl>>>::_Vector_impl_data" = type { ptr, ptr, ptr }
%"struct.pkpy::Bytecode" = type { i8, i16 }
%"class.pkpy::unique_ptr_128" = type { ptr }
%"struct.pkpy::Expr.base" = type <{ ptr, i32 }>
%"struct.pkpy::Expr" = type <{ ptr, i32, [4 x i8] }>
%"struct.pkpy::TernaryExpr" = type { %"struct.pkpy::Expr.base", %"class.pkpy::unique_ptr_128", %"class.pkpy::unique_ptr_128", %"class.pkpy::unique_ptr_128" }

; Function Attrs: mustprogress nounwind uwtable
define linkonce_odr noundef ptr @_ZNKSt12__shared_ptrIN4pkpy10CodeObjectELN9__gnu_cxx12_Lock_policyE2EE3getEv(ptr noundef nonnull align 8 dereferenceable(16) %0) #5 comdat align 2 {
  %2 = alloca ptr, align 8
  store ptr %0, ptr %2, align 8
  %3 = load ptr, ptr %2, align 8
  %4 = getelementptr inbounds %"class.std::__shared_ptr.1", ptr %3, i32 0, i32 0
  %5 = load ptr, ptr %4, align 8
  ret ptr %5
}

; Function Attrs: mustprogress nounwind uwtable
define linkonce_odr noundef ptr @_ZNKSt19__shared_ptr_accessIN4pkpy10CodeObjectELN9__gnu_cxx12_Lock_policyE2ELb0ELb0EE6_M_getEv(ptr noundef nonnull align 1 dereferenceable(1) %0) #5 comdat align 2 {
  %2 = alloca ptr, align 8
  store ptr %0, ptr %2, align 8
  %3 = load ptr, ptr %2, align 8
  %4 = call noundef ptr @_ZNKSt12__shared_ptrIN4pkpy10CodeObjectELN9__gnu_cxx12_Lock_policyE2EE3getEv(ptr noundef nonnull align 8 dereferenceable(16) %3) #3
  ret ptr %4
}

; Function Attrs: mustprogress nounwind uwtable
define linkonce_odr noundef nonnull align 2 dereferenceable(4) ptr @_ZNSt6vectorIN4pkpy8BytecodeESaIS1_EEixEm(ptr noundef nonnull align 8 dereferenceable(24) %0, i64 noundef %1) #5 comdat align 2 {
  %3 = alloca ptr, align 8
  %4 = alloca i64, align 8
  store ptr %0, ptr %3, align 8
  store i64 %1, ptr %4, align 8
  %5 = load ptr, ptr %3, align 8
  %6 = getelementptr inbounds %"struct.std::_Vector_base.32", ptr %5, i32 0, i32 0
  %7 = getelementptr inbounds %"struct.std::_Vector_base<pkpy::Bytecode, std::allocator<pkpy::Bytecode>>::_Vector_impl_data", ptr %6, i32 0, i32 0
  %8 = load ptr, ptr %7, align 8
  %9 = load i64, ptr %4, align 8
  %10 = getelementptr inbounds %"struct.pkpy::Bytecode", ptr %8, i64 %9
  ret ptr %10
}

; Function Attrs: mustprogress nounwind uwtable
define linkonce_odr noundef i64 @_ZNKSt6vectorIN4pkpy8BytecodeESaIS1_EE4sizeEv(ptr noundef nonnull align 8 dereferenceable(24) %0) #5 comdat align 2 {
  %2 = alloca ptr, align 8
  store ptr %0, ptr %2, align 8
  %3 = load ptr, ptr %2, align 8
  %4 = getelementptr inbounds %"struct.std::_Vector_base.32", ptr %3, i32 0, i32 0
  %5 = getelementptr inbounds %"struct.std::_Vector_base<pkpy::Bytecode, std::allocator<pkpy::Bytecode>>::_Vector_impl_data", ptr %4, i32 0, i32 1
  %6 = load ptr, ptr %5, align 8
  %7 = getelementptr inbounds %"struct.std::_Vector_base.32", ptr %3, i32 0, i32 0
  %8 = getelementptr inbounds %"struct.std::_Vector_base<pkpy::Bytecode, std::allocator<pkpy::Bytecode>>::_Vector_impl_data", ptr %7, i32 0, i32 0
  %9 = load ptr, ptr %8, align 8
  %10 = ptrtoint ptr %6 to i64
  %11 = ptrtoint ptr %9 to i64
  %12 = sub i64 %10, %11
  %13 = sdiv exact i64 %12, 4
  ret i64 %13
}

; Function Attrs: mustprogress nounwind uwtable
define linkonce_odr noundef ptr @_ZNKSt19__shared_ptr_accessIN4pkpy10CodeObjectELN9__gnu_cxx12_Lock_policyE2ELb0ELb0EEptEv(ptr noundef nonnull align 1 dereferenceable(1) %0) #5 comdat align 2 {
  %2 = alloca ptr, align 8
  store ptr %0, ptr %2, align 8
  %3 = load ptr, ptr %2, align 8
  %4 = call noundef ptr @_ZNKSt19__shared_ptr_accessIN4pkpy10CodeObjectELN9__gnu_cxx12_Lock_policyE2ELb0ELb0EE6_M_getEv(ptr noundef nonnull align 1 dereferenceable(1) %3) #3
  ret ptr %4
}

; Function Attrs: mustprogress nounwind uwtable
define void @_ZN4pkpy15CodeEmitContext10patch_jumpEi(ptr noundef nonnull align 8 dereferenceable(232) %0, i32 noundef %1) #5 align 2 {
  %3 = alloca ptr, align 8
  %4 = alloca i32, align 4
  %5 = alloca i32, align 4
  store ptr %0, ptr %3, align 8
  store i32 %1, ptr %4, align 4
  %6 = load ptr, ptr %3, align 8
  %7 = getelementptr inbounds %"struct.pkpy::CodeEmitContext", ptr %6, i32 0, i32 2
  %8 = call noundef ptr @_ZNKSt19__shared_ptr_accessIN4pkpy10CodeObjectELN9__gnu_cxx12_Lock_policyE2ELb0ELb0EEptEv(ptr noundef nonnull align 1 dereferenceable(1) %7) #3
  %9 = getelementptr inbounds %"struct.pkpy::CodeObject", ptr %8, i32 0, i32 2
  %10 = call noundef i64 @_ZNKSt6vectorIN4pkpy8BytecodeESaIS1_EE4sizeEv(ptr noundef nonnull align 8 dereferenceable(24) %9) #3
  %11 = trunc i64 %10 to i32
  store i32 %11, ptr %5, align 4
  %12 = load i32, ptr %5, align 4
  %13 = trunc i32 %12 to i16
  %14 = getelementptr inbounds %"struct.pkpy::CodeEmitContext", ptr %6, i32 0, i32 2
  %15 = call noundef ptr @_ZNKSt19__shared_ptr_accessIN4pkpy10CodeObjectELN9__gnu_cxx12_Lock_policyE2ELb0ELb0EEptEv(ptr noundef nonnull align 1 dereferenceable(1) %14) #3
  %16 = getelementptr inbounds %"struct.pkpy::CodeObject", ptr %15, i32 0, i32 2
  %17 = load i32, ptr %4, align 4
  %18 = sext i32 %17 to i64
  %19 = call noundef nonnull align 2 dereferenceable(4) ptr @_ZNSt6vectorIN4pkpy8BytecodeESaIS1_EEixEm(ptr noundef nonnull align 8 dereferenceable(24) %16, i64 noundef %18) #3
  %20 = getelementptr inbounds %"struct.pkpy::Bytecode", ptr %19, i32 0, i32 1
  store i16 %13, ptr %20, align 2
  ret void
}

; Function Attrs: mustprogress nounwind uwtable
define linkonce_odr noundef ptr @_ZNK4pkpy14unique_ptr_128INS_4ExprEEptEv(ptr noundef nonnull align 8 dereferenceable(8) %0) #5 comdat align 2 {
  %2 = alloca ptr, align 8
  store ptr %0, ptr %2, align 8
  %3 = load ptr, ptr %2, align 8
  %4 = getelementptr inbounds %"class.pkpy::unique_ptr_128", ptr %3, i32 0, i32 0
  %5 = load ptr, ptr %4, align 8
  ret ptr %5
}

; Function Attrs: mustprogress uwtable
define void @_ZN4pkpy11TernaryExpr5emit_EPNS_15CodeEmitContextE(ptr noundef nonnull align 8 dereferenceable(40) %0, ptr noundef %1) unnamed_addr #4 align 2 {
  %3 = alloca ptr, align 8
  %4 = alloca ptr, align 8
  %5 = alloca i32, align 4
  %6 = alloca i32, align 4
  store ptr %0, ptr %3, align 8
  store ptr %1, ptr %4, align 8
  %7 = load ptr, ptr %3, align 8
  %8 = getelementptr inbounds %"struct.pkpy::TernaryExpr", ptr %7, i32 0, i32 1
  %9 = call noundef ptr @_ZNK4pkpy14unique_ptr_128INS_4ExprEEptEv(ptr noundef nonnull align 8 dereferenceable(8) %8)
  %10 = load ptr, ptr %4, align 8
  %11 = load ptr, ptr %9, align 8
  %12 = getelementptr inbounds ptr, ptr %11, i64 2
  %13 = load ptr, ptr %12, align 8
  call void %13(ptr noundef nonnull align 8 dereferenceable(12) %9, ptr noundef %10)
  %14 = load ptr, ptr %4, align 8
  %15 = getelementptr inbounds %"struct.pkpy::TernaryExpr", ptr %7, i32 0, i32 1
  %16 = call noundef ptr @_ZNK4pkpy14unique_ptr_128INS_4ExprEEptEv(ptr noundef nonnull align 8 dereferenceable(8) %15)
  %17 = getelementptr inbounds %"struct.pkpy::Expr", ptr %16, i32 0, i32 1
  %18 = load i32, ptr %17, align 8
  %19 = call noundef i32 @_ZN4pkpy15CodeEmitContext5emit_ENS_6OpcodeEtib(ptr noundef nonnull align 8 dereferenceable(232) %14, i8 noundef zeroext 71, i16 noundef zeroext 0, i32 noundef %18, i1 noundef zeroext false)
  store i32 %19, ptr %5, align 4
  %20 = getelementptr inbounds %"struct.pkpy::TernaryExpr", ptr %7, i32 0, i32 2
  %21 = call noundef ptr @_ZNK4pkpy14unique_ptr_128INS_4ExprEEptEv(ptr noundef nonnull align 8 dereferenceable(8) %20)
  %22 = load ptr, ptr %4, align 8
  %23 = load ptr, ptr %21, align 8
  %24 = getelementptr inbounds ptr, ptr %23, i64 2
  %25 = load ptr, ptr %24, align 8
  call void %25(ptr noundef nonnull align 8 dereferenceable(12) %21, ptr noundef %22)
  %26 = load ptr, ptr %4, align 8
  %27 = getelementptr inbounds %"struct.pkpy::TernaryExpr", ptr %7, i32 0, i32 2
  %28 = call noundef ptr @_ZNK4pkpy14unique_ptr_128INS_4ExprEEptEv(ptr noundef nonnull align 8 dereferenceable(8) %27)
  %29 = getelementptr inbounds %"struct.pkpy::Expr", ptr %28, i32 0, i32 1
  %30 = load i32, ptr %29, align 8
  %31 = call noundef i32 @_ZN4pkpy15CodeEmitContext5emit_ENS_6OpcodeEtib(ptr noundef nonnull align 8 dereferenceable(232) %26, i8 noundef zeroext 69, i16 noundef zeroext 0, i32 noundef %30, i1 noundef zeroext false)
  store i32 %31, ptr %6, align 4
  %32 = load ptr, ptr %4, align 8
  %33 = load i32, ptr %5, align 4
  call void @_ZN4pkpy15CodeEmitContext10patch_jumpEi(ptr noundef nonnull align 8 dereferenceable(232) %32, i32 noundef %33)
  %34 = getelementptr inbounds %"struct.pkpy::TernaryExpr", ptr %7, i32 0, i32 3
  %35 = call noundef ptr @_ZNK4pkpy14unique_ptr_128INS_4ExprEEptEv(ptr noundef nonnull align 8 dereferenceable(8) %34)
  %36 = load ptr, ptr %4, align 8
  %37 = load ptr, ptr %35, align 8
  %38 = getelementptr inbounds ptr, ptr %37, i64 2
  %39 = load ptr, ptr %38, align 8
  call void %39(ptr noundef nonnull align 8 dereferenceable(12) %35, ptr noundef %36)
  %40 = load ptr, ptr %4, align 8
  %41 = load i32, ptr %6, align 4
  call void @_ZN4pkpy15CodeEmitContext10patch_jumpEi(ptr noundef nonnull align 8 dereferenceable(232) %40, i32 noundef %41)
  ret void
}