; Function Attrs: mustprogress uwtable
define void @_ZN4pkpy11TernaryExpr5emit_EPNS_15CodeEmitContextE(ptr noundef nonnull readonly align 8 captures(none) dereferenceable(40) %0, ptr noundef %1) unnamed_addr #5 align 2 {
  %3 = getelementptr inbounds nuw i8, ptr %0, i64 16
  %4 = load ptr, ptr %3, align 8
  %5 = load ptr, ptr %4, align 8
  %6 = getelementptr inbounds nuw i8, ptr %5, i64 16
  %7 = load ptr, ptr %6, align 8
  tail call void %7(ptr noundef nonnull align 8 dereferenceable(12) %4, ptr noundef %1)
  %8 = load ptr, ptr %3, align 8
  %9 = getelementptr inbounds nuw i8, ptr %8, i64 8
  %10 = load i32, ptr %9, align 8
  %11 = tail call noundef i32 @_ZN4pkpy15CodeEmitContext5emit_ENS_6OpcodeEtib(ptr noundef nonnull align 8 dereferenceable(232) %1, i8 noundef zeroext 71, i16 noundef zeroext 0, i32 noundef %10, i1 noundef zeroext false)
  %12 = getelementptr inbounds nuw i8, ptr %0, i64 24
  %13 = load ptr, ptr %12, align 8
  %14 = load ptr, ptr %13, align 8
  %15 = getelementptr inbounds nuw i8, ptr %14, i64 16
  %16 = load ptr, ptr %15, align 8
  tail call void %16(ptr noundef nonnull align 8 dereferenceable(12) %13, ptr noundef nonnull %1)
  %17 = load ptr, ptr %12, align 8
  %18 = getelementptr inbounds nuw i8, ptr %17, i64 8
  %19 = load i32, ptr %18, align 8
  %20 = tail call noundef i32 @_ZN4pkpy15CodeEmitContext5emit_ENS_6OpcodeEtib(ptr noundef nonnull align 8 dereferenceable(232) %1, i8 noundef zeroext 69, i16 noundef zeroext 0, i32 noundef %19, i1 noundef zeroext false)
  %21 = getelementptr inbounds nuw i8, ptr %1, i64 24
  %22 = load ptr, ptr %21, align 8
  %23 = getelementptr inbounds nuw i8, ptr %22, i64 48
  %24 = getelementptr inbounds nuw i8, ptr %22, i64 56
  %25 = load ptr, ptr %24, align 8
  %26 = load ptr, ptr %23, align 8
  %27 = ptrtoint ptr %25 to i64
  %28 = ptrtoint ptr %26 to i64
  %29 = sub i64 %27, %28
  %30 = lshr exact i64 %29, 2
  %31 = trunc i64 %30 to i16
  %32 = sext i32 %11 to i64
  %33 = getelementptr inbounds %"struct.pkpy::Bytecode", ptr %26, i64 %32, i32 1
  store i16 %31, ptr %33, align 2
  %34 = getelementptr inbounds nuw i8, ptr %0, i64 32
  %35 = load ptr, ptr %34, align 8
  %36 = load ptr, ptr %35, align 8
  %37 = getelementptr inbounds nuw i8, ptr %36, i64 16
  %38 = load ptr, ptr %37, align 8
  tail call void %38(ptr noundef nonnull align 8 dereferenceable(12) %35, ptr noundef nonnull %1)
  %39 = load ptr, ptr %21, align 8
  %40 = getelementptr inbounds nuw i8, ptr %39, i64 48
  %41 = getelementptr inbounds nuw i8, ptr %39, i64 56
  %42 = load ptr, ptr %41, align 8
  %43 = load ptr, ptr %40, align 8
  %44 = ptrtoint ptr %42 to i64
  %45 = ptrtoint ptr %43 to i64
  %46 = sub i64 %44, %45
  %47 = lshr exact i64 %46, 2
  %48 = trunc i64 %47 to i16
  %49 = sext i32 %20 to i64
  %50 = getelementptr inbounds %"struct.pkpy::Bytecode", ptr %43, i64 %49, i32 1
  store i16 %48, ptr %50, align 2
  ret void
}